target datalayout = "e-m:e-p270:32:32-p271:32:32-p272:64:64-i64:64-i128:128-f80:128-n8:16:32:64-S128"
target triple = "x86_64-pc-linux-gnu"

; Function Attrs: inlinehint mustprogress nounwind uwtable
define linkonce_odr dso_local void @_ZSt4swapIdENSt9enable_ifIXsr6__and_ISt6__not_ISt15__is_tuple_likeIT_EESt21is_move_constructibleIS3_ESt18is_move_assignableIS3_EEE5valueEvE4typeERS3_SC_(ptr noundef nonnull align 8 dereferenceable(8) %0, ptr noundef nonnull align 8 dereferenceable(8) %1) #6 comdat {
  %3 = alloca ptr, align 8
  %4 = alloca ptr, align 8
  %5 = alloca double, align 8
  store ptr %0, ptr %3, align 8, !tbaa !26
  store ptr %1, ptr %4, align 8, !tbaa !26
  call void @llvm.lifetime.start.p0(i64 8, ptr %5) #22
  %6 = load ptr, ptr %3, align 8, !tbaa !26
  %7 = load double, ptr %6, align 8, !tbaa !17
  store double %7, ptr %5, align 8, !tbaa !17
  %8 = load ptr, ptr %4, align 8, !tbaa !26
  %9 = load double, ptr %8, align 8, !tbaa !17
  %10 = load ptr, ptr %3, align 8, !tbaa !26
  store double %9, ptr %10, align 8, !tbaa !17
  %11 = load double, ptr %5, align 8, !tbaa !17
  %12 = load ptr, ptr %4, align 8, !tbaa !26
  store double %11, ptr %12, align 8, !tbaa !17
  call void @llvm.lifetime.end.p0(i64 8, ptr %5) #22
  ret void
}

; Function Attrs: inlinehint mustprogress nounwind uwtable
define linkonce_odr dso_local noundef double @_ZSt3powIdiEN9__gnu_cxx9__promoteIDTplcvNS1_IT_Xsr3std12__is_integerIS2_EE7__valueEE6__typeELi0EcvNS1_IT0_Xsr3std12__is_integerIS5_EE7__valueEE6__typeELi0EEXsr3std12__is_integerIS8_EE7__valueEE6__typeES2_S5_(double noundef %0, i32 noundef %1) #6 comdat {
  %3 = alloca double, align 8
  %4 = alloca i32, align 4
  store double %0, ptr %3, align 8, !tbaa !17
  store i32 %1, ptr %4, align 4, !tbaa !19
  %5 = load double, ptr %3, align 8, !tbaa !17
  %6 = load i32, ptr %4, align 4, !tbaa !19
  %7 = sitofp i32 %6 to double
  %8 = call double @pow(double noundef %5, double noundef %7) #22, !tbaa !19
  ret double %8
}

; Function Attrs: inlinehint mustprogress nounwind uwtable
define linkonce_odr dso_local noundef double @_ZSt3absd(double noundef %0) #6 comdat {
  %2 = alloca double, align 8
  store double %0, ptr %2, align 8, !tbaa !17
  %3 = load double, ptr %2, align 8, !tbaa !17
  %4 = call double @llvm.fabs.f64(double %3)
  ret double %4
}

; Function Attrs: mustprogress uwtable
define dso_local noundef double @_ZN3igl13flip_avoiding26get_smallest_pos_quad_zeroEddd(double noundef %0, double noundef %1, double noundef %2) #3 {
  %4 = alloca double, align 8
  %5 = alloca double, align 8
  %6 = alloca double, align 8
  %7 = alloca double, align 8
  %8 = alloca double, align 8
  %9 = alloca double, align 8
  %10 = alloca double, align 8
  %11 = alloca i32, align 4
  %12 = alloca double, align 8
  %13 = alloca double, align 8
  %14 = alloca double, align 8
  store double %0, ptr %5, align 8, !tbaa !17
  store double %1, ptr %6, align 8, !tbaa !17
  store double %2, ptr %7, align 8, !tbaa !17
  call void @llvm.lifetime.start.p0(i64 8, ptr %8) #22
  call void @llvm.lifetime.start.p0(i64 8, ptr %9) #22
  %15 = load double, ptr %5, align 8, !tbaa !17
  %16 = call noundef double @_ZSt3absd(double noundef %15)
  %17 = fcmp ogt double %16, 1.000000e-10
  br i1 %17, label %18, label %79

18:                                               ; preds = %3
  call void @llvm.lifetime.start.p0(i64 8, ptr %10) #22
  %19 = load double, ptr %6, align 8, !tbaa !17
  %20 = call noundef double @_ZSt3powIdiEN9__gnu_cxx9__promoteIDTplcvNS1_IT_Xsr3std12__is_integerIS2_EE7__valueEE6__typeELi0EcvNS1_IT0_Xsr3std12__is_integerIS5_EE7__valueEE6__typeELi0EEXsr3std12__is_integerIS8_EE7__valueEE6__typeES2_S5_(double noundef %19, i32 noundef 2)
  %21 = load double, ptr %5, align 8, !tbaa !17
  %22 = fmul double 4.000000e+00, %21
  %23 = load double, ptr %7, align 8, !tbaa !17
  %24 = fneg double %22
  %25 = call double @llvm.fmuladd.f64(double %24, double %23, double %20)
  store double %25, ptr %10, align 8, !tbaa !17
  %26 = load double, ptr %10, align 8, !tbaa !17
  %27 = fcmp ole double %26, 0.000000e+00
  br i1 %27, label %28, label %29

28:                                               ; preds = %18
  store double 0x7FF0000000000000, ptr %4, align 8
  store i32 1, ptr %11, align 4
  br label %78

29:                                               ; preds = %18
  call void @llvm.lifetime.start.p0(i64 8, ptr %12) #22
  %30 = load double, ptr %10, align 8, !tbaa !17
  %31 = call double @sqrt(double noundef %30) #22, !tbaa !19
  store double %31, ptr %12, align 8, !tbaa !17
  %32 = load double, ptr %6, align 8, !tbaa !17
  %33 = fcmp oge double %32, 0.000000e+00
  br i1 %33, label %34, label %47

34:                                               ; preds = %29
  call void @llvm.lifetime.start.p0(i64 8, ptr %13) #22
  %35 = load double, ptr %6, align 8, !tbaa !17
  %36 = fneg double %35
  %37 = load double, ptr %12, align 8, !tbaa !17
  %38 = fsub double %36, %37
  store double %38, ptr %13, align 8, !tbaa !17
  %39 = load double, ptr %7, align 8, !tbaa !17
  %40 = fmul double 2.000000e+00, %39
  %41 = load double, ptr %13, align 8, !tbaa !17
  %42 = fdiv double %40, %41
  store double %42, ptr %8, align 8, !tbaa !17
  %43 = load double, ptr %13, align 8, !tbaa !17
  %44 = load double, ptr %5, align 8, !tbaa !17
  %45 = fmul double 2.000000e+00, %44
  %46 = fdiv double %43, %45
  store double %46, ptr %9, align 8, !tbaa !17
  call void @llvm.lifetime.end.p0(i64 8, ptr %13) #22
  br label %60

47:                                               ; preds = %29
  call void @llvm.lifetime.start.p0(i64 8, ptr %14) #22
  %48 = load double, ptr %6, align 8, !tbaa !17
  %49 = fneg double %48
  %50 = load double, ptr %12, align 8, !tbaa !17
  %51 = fadd double %49, %50
  store double %51, ptr %14, align 8, !tbaa !17
  %52 = load double, ptr %14, align 8, !tbaa !17
  %53 = load double, ptr %5, align 8, !tbaa !17
  %54 = fmul double 2.000000e+00, %53
  %55 = fdiv double %52, %54
  store double %55, ptr %8, align 8, !tbaa !17
  %56 = load double, ptr %7, align 8, !tbaa !17
  %57 = fmul double 2.000000e+00, %56
  %58 = load double, ptr %14, align 8, !tbaa !17
  %59 = fdiv double %57, %58
  store double %59, ptr %9, align 8, !tbaa !17
  call void @llvm.lifetime.end.p0(i64 8, ptr %14) #22
  br label %60

60:                                               ; preds = %47, %34
  %61 = load double, ptr %5, align 8, !tbaa !17
  %62 = fcmp olt double %61, 0.000000e+00
  br i1 %62, label %63, label %64

63:                                               ; preds = %60
  call void @_ZSt4swapIdENSt9enable_ifIXsr6__and_ISt6__not_ISt15__is_tuple_likeIT_EESt21is_move_constructibleIS3_ESt18is_move_assignableIS3_EEE5valueEvE4typeERS3_SC_(ptr noundef nonnull align 8 dereferenceable(8) %8, ptr noundef nonnull align 8 dereferenceable(8) %9) #22
  br label %64

64:                                               ; preds = %63, %60
  %65 = load double, ptr %8, align 8, !tbaa !17
  %66 = fcmp ogt double %65, 0.000000e+00
  br i1 %66, label %67, label %76

67:                                               ; preds = %64
  %68 = load double, ptr %9, align 8, !tbaa !17
  %69 = fcmp ogt double %68, 0.000000e+00
  br i1 %69, label %70, label %72

70:                                               ; preds = %67
  %71 = load double, ptr %9, align 8, !tbaa !17
  br label %74

72:                                               ; preds = %67
  %73 = load double, ptr %8, align 8, !tbaa !17
  br label %74

74:                                               ; preds = %72, %70
  %75 = phi double [ %71, %70 ], [ %73, %72 ]
  store double %75, ptr %4, align 8
  store i32 1, ptr %11, align 4
  br label %77

76:                                               ; preds = %64
  store double 0x7FF0000000000000, ptr %4, align 8
  store i32 1, ptr %11, align 4
  br label %77

77:                                               ; preds = %76, %74
  call void @llvm.lifetime.end.p0(i64 8, ptr %12) #22
  br label %78

78:                                               ; preds = %77, %28
  call void @llvm.lifetime.end.p0(i64 8, ptr %10) #22
  br label %95

79:                                               ; preds = %3
  %80 = load double, ptr %6, align 8, !tbaa !17
  %81 = fcmp oeq double %80, 0.000000e+00
  br i1 %81, label %82, label %83

82:                                               ; preds = %79
  store double 0x7FF0000000000000, ptr %4, align 8
  store i32 1, ptr %11, align 4
  br label %95

83:                                               ; preds = %79
  %84 = load double, ptr %7, align 8, !tbaa !17
  %85 = fneg double %84
  %86 = load double, ptr %6, align 8, !tbaa !17
  %87 = fdiv double %85, %86
  store double %87, ptr %8, align 8, !tbaa !17
  %88 = load double, ptr %8, align 8, !tbaa !17
  %89 = fcmp ogt double %88, 0.000000e+00
  br i1 %89, label %90, label %92

90:                                               ; preds = %83
  %91 = load double, ptr %8, align 8, !tbaa !17
  br label %93

92:                                               ; preds = %83
  br label %93

93:                                               ; preds = %92, %90
  %94 = phi double [ %91, %90 ], [ 0x7FF0000000000000, %92 ]
  store double %94, ptr %4, align 8
  store i32 1, ptr %11, align 4
  br label %95

95:                                               ; preds = %93, %82, %78
  call void @llvm.lifetime.end.p0(i64 8, ptr %9) #22
  call void @llvm.lifetime.end.p0(i64 8, ptr %8) #22
  %96 = load double, ptr %4, align 8
  ret double %96
}