; Function Attrs: mustprogress nofree norecurse nounwind willreturn memory(errnomem: write) uwtable
define dso_local noundef double @_ZN3igl13flip_avoiding26get_smallest_pos_quad_zeroEddd(double noundef %0, double noundef %1, double noundef %2) local_unnamed_addr #4 {
  %4 = tail call noundef double @llvm.fabs.f64(double %0)
  %5 = fcmp ogt double %4, 1.000000e-10
  br i1 %5, label %6, label %32

6:                                                ; preds = %3
  %square = fmul double %1, %1
  %7 = fmul double %0, -4.000000e+00
  %8 = tail call double @llvm.fmuladd.f64(double %7, double %2, double %square)
  %9 = fcmp ugt double %8, 0.000000e+00
  br i1 %9, label %10, label %39

10:                                               ; preds = %6
  %11 = tail call double @sqrt(double noundef %8) #19, !tbaa !4
  %12 = fcmp ult double %1, 0.000000e+00
  br i1 %12, label %20, label %13

13:                                               ; preds = %10
  %14 = fneg double %1
  %15 = fsub double %14, %11
  %16 = fmul double %2, 2.000000e+00
  %17 = fdiv double %16, %15
  %18 = fmul double %0, 2.000000e+00
  %19 = fdiv double %15, %18
  br label %26

20:                                               ; preds = %10
  %21 = fsub double %11, %1
  %22 = fmul double %0, 2.000000e+00
  %23 = fdiv double %21, %22
  %24 = fmul double %2, 2.000000e+00
  %25 = fdiv double %24, %21
  br label %26

26:                                               ; preds = %20, %13
  %.032 = phi double [ %23, %20 ], [ %17, %13 ]
  %storemerge = phi double [ %25, %20 ], [ %19, %13 ]
  %27 = fcmp olt double %0, 0.000000e+00
  %.1 = select i1 %27, double %storemerge, double %.032
  %28 = fcmp ogt double %.1, 0.000000e+00
  br i1 %28, label %29, label %39

29:                                               ; preds = %26
  %.0 = select i1 %27, double %.032, double %storemerge
  %30 = fcmp ogt double %.0, 0.000000e+00
  %31 = select i1 %30, double %.0, double %.1
  br label %39

32:                                               ; preds = %3
  %33 = fcmp oeq double %1, 0.000000e+00
  br i1 %33, label %39, label %34

34:                                               ; preds = %32
  %35 = fneg double %2
  %36 = fdiv double %35, %1
  %37 = fcmp ogt double %36, 0.000000e+00
  %38 = select i1 %37, double %36, double 0x7FF0000000000000
  br label %39

39:                                               ; preds = %32, %6, %26, %29, %34
  %.2 = phi double [ %38, %34 ], [ 0x7FF0000000000000, %6 ], [ %31, %29 ], [ 0x7FF0000000000000, %26 ], [ 0x7FF0000000000000, %32 ]
  ret double %.2
}